; Function Attrs: mustprogress nofree norecurse nosync nounwind willreturn memory(argmem: read) uwtable
define dso_local noundef zeroext i1 @_ZNK4base20SampleVectorIterator4DoneEv(ptr nocapture noundef nonnull readonly align 8 dereferenceable(40) %this) unnamed_addr #8 align 2 {
entry:
  %index_ = getelementptr inbounds i8, ptr %this, i64 32
  %0 = load i64, ptr %index_, align 8
  %counts_size_ = getelementptr inbounds i8, ptr %this, i64 16
  %1 = load i64, ptr %counts_size_, align 8
  %cmp = icmp uge i64 %0, %1
  ret i1 %cmp
}